; Function Attrs: mustprogress uwtable
define noundef i64 @_ZN5dtm_t10modify_csrEjmj(ptr nocapture noundef nonnull align 8 dereferenceable(928) %0, i32 noundef %1, i64 noundef %2, i32 noundef %3) local_unnamed_addr #0 align 2 {
  %5 = alloca [6 x i32], align 16
  %6 = alloca [2 x i32], align 4
  %7 = getelementptr inbounds i8, ptr %0, i64 924
  %8 = load i32, ptr %7, align 4
  tail call void @_ZN5dtm_t4haltEi(ptr noundef nonnull align 8 dereferenceable(928) %0, i32 noundef %8)
  store i32 2065962099, ptr %5, align 16
  %9 = getelementptr inbounds i8, ptr %5, i64 4
  %10 = getelementptr inbounds i8, ptr %0, i64 900
  %11 = load i32, ptr %10, align 4
  %12 = icmp eq i32 %11, 64
  %13 = select i1 %12, i32 13315, i32 9219
  %14 = getelementptr inbounds i8, ptr %0, i64 896
  %15 = load i32, ptr %14, align 8
  %16 = shl i32 %15, 20
  %17 = or disjoint i32 %13, %16
  store i32 %17, ptr %9, align 4
  %18 = getelementptr inbounds i8, ptr %5, i64 8
  %19 = shl i32 %3, 12
  %20 = shl i32 %1, 20
  %21 = or i32 %20, %19
  %22 = or i32 %21, 263283
  store i32 %22, ptr %18, align 8
  %23 = getelementptr inbounds i8, ptr %5, i64 12
  %24 = select i1 %12, i32 8400931, i32 8396835
  %25 = shl i32 %15, 7
  %26 = and i32 %25, 3968
  %27 = and i32 %16, -33554432
  %28 = or disjoint i32 %27, %24
  %29 = or disjoint i32 %28, %26
  store i32 %29, ptr %23, align 4
  %30 = getelementptr inbounds i8, ptr %5, i64 16
  store i32 2065962099, ptr %30, align 16
  %31 = getelementptr inbounds i8, ptr %5, i64 20
  store i32 1048691, ptr %31, align 4
  %32 = trunc i64 %2 to i32
  store i32 %32, ptr %6, align 4
  %33 = getelementptr inbounds i8, ptr %6, i64 4
  %34 = lshr i64 %2, 32
  %35 = trunc i64 %34 to i32
  store i32 %35, ptr %33, align 4
  %36 = icmp eq i32 %11, 128
  %37 = select i1 %12, i32 3608576, i32 2560000
  %38 = select i1 %36, i32 4657152, i32 %37
  %39 = lshr i32 %11, 5
  %40 = zext nneg i32 %39 to i64
  %41 = call noundef i32 @_ZN5dtm_t20run_abstract_commandEjPKjmPjm(ptr noundef nonnull align 8 dereferenceable(928) %0, i32 noundef %38, ptr noundef nonnull %5, i64 noundef 6, ptr noundef nonnull %6, i64 noundef %40), !range !8
  %.not = icmp eq i32 %41, 0
  br i1 %.not, label %53, label %42

42:                                               ; preds = %4
  %43 = icmp ult i32 %41, 5
  br i1 %43, label %44, label %_ZN5dtm_t3dieEj.exit

44:                                               ; preds = %42
  %45 = zext nneg i32 %41 to i64
  %46 = getelementptr inbounds [5 x ptr], ptr @__const._ZN5dtm_t3dieEj.codes, i64 0, i64 %45
  %47 = load ptr, ptr %46, align 8
  br label %_ZN5dtm_t3dieEj.exit

_ZN5dtm_t3dieEj.exit:                             ; preds = %42, %44
  %.0.i = phi ptr [ %47, %44 ], [ @.str.5, %42 ]
  %48 = tail call i32 (ptr, ...) @printf(ptr noundef nonnull dereferenceable(1) @.str.6, ptr noundef nonnull @.str.7, i32 noundef 357, i32 noundef %41, ptr noundef %.0.i)
  %49 = tail call i32 (ptr, ...) @printf(ptr noundef nonnull dereferenceable(1) @.str.8, ptr noundef nonnull @.str.7, i32 noundef 358)
  %50 = getelementptr inbounds i8, ptr %0, i64 872
  store i64 8589934614, ptr %50, align 8
  %.sroa.22.0..sroa_idx.i.i.i = getelementptr inbounds i8, ptr %0, i64 880
  store i32 1792, ptr %.sroa.22.0..sroa_idx.i.i.i, align 8
  %51 = getelementptr inbounds i8, ptr %0, i64 728
  %52 = load ptr, ptr %51, align 8
  tail call void @_ZN9context_t9switch_toEv(ptr noundef nonnull align 8 dereferenceable(32) %52)
  br label %53

53:                                               ; preds = %_ZN5dtm_t3dieEj.exit, %4
  %54 = getelementptr inbounds i8, ptr %0, i64 872
  store i64 4294967300, ptr %54, align 8
  %.sroa.22.0..sroa_idx.i.i = getelementptr inbounds i8, ptr %0, i64 880
  store i32 0, ptr %.sroa.22.0..sroa_idx.i.i, align 8
  %55 = getelementptr inbounds i8, ptr %0, i64 728
  %56 = load ptr, ptr %55, align 8
  tail call void @_ZN9context_t9switch_toEv(ptr noundef nonnull align 8 dereferenceable(32) %56)
  %57 = getelementptr inbounds i8, ptr %0, i64 888
  %58 = load i32, ptr %57, align 8
  %59 = load i32, ptr %10, align 4
  %60 = icmp eq i32 %59, 64
  br i1 %60, label %61, label %65

61:                                               ; preds = %53
  store i64 4294967301, ptr %54, align 8
  store i32 0, ptr %.sroa.22.0..sroa_idx.i.i, align 8
  %62 = load ptr, ptr %55, align 8
  tail call void @_ZN9context_t9switch_toEv(ptr noundef nonnull align 8 dereferenceable(32) %62)
  %63 = load i32, ptr %57, align 8
  %64 = or i32 %63, %58
  br label %65

65:                                               ; preds = %61, %53
  %.0.in = phi i32 [ %64, %61 ], [ %58, %53 ]
  %.0 = zext i32 %.0.in to i64
  %66 = load i32, ptr %7, align 4
  tail call void @_ZN5dtm_t6resumeEi(ptr noundef nonnull align 8 dereferenceable(928) %0, i32 noundef %66)
  ret i64 %.0
}